; Function Attrs: mustprogress nofree norecurse nosync nounwind willreturn memory(read, argmem: readwrite, inaccessiblemem: none) uwtable
define internal range(i32 -12, 1) i32 @HSC_Scroll_Char_Forward(ptr noundef captures(none) %0) #7 {
  %2 = getelementptr inbounds nuw i8, ptr %0, i64 72
  %3 = load ptr, ptr %2, align 8, !tbaa !14
  %4 = getelementptr inbounds nuw i8, ptr %0, i64 20
  %5 = load i32, ptr %4, align 4, !tbaa !31
  %6 = getelementptr inbounds nuw i8, ptr %3, i64 16
  %7 = load i32, ptr %6, align 8, !tbaa !26
  %8 = getelementptr inbounds nuw i8, ptr %3, i64 4
  %9 = load i16, ptr %8, align 4, !tbaa !27
  %10 = sext i16 %9 to i32
  %11 = sub nsw i32 %7, %10
  %.not = icmp slt i32 %5, %11
  %12 = sub nsw i32 %11, %5
  %spec.select.i = select i1 %.not, i32 1, i32 %12
  %13 = icmp sgt i32 %spec.select.i, 0
  br i1 %13, label %14, label %HSC_Generic.exit

14:                                               ; preds = %1
  %15 = getelementptr inbounds nuw i8, ptr %0, i64 12
  %16 = load i32, ptr %15, align 4, !tbaa !18
  %17 = add nsw i32 %16, %spec.select.i
  store i32 %17, ptr %15, align 4, !tbaa !18
  %18 = add nsw i32 %spec.select.i, %5
  store i32 %18, ptr %4, align 4, !tbaa !31
  br label %HSC_Generic.exit

HSC_Generic.exit:                                 ; preds = %1, %14
  %.025.i = phi i32 [ 0, %14 ], [ -12, %1 ]
  ret i32 %.025.i
}